target datalayout = "e-m:e-p270:32:32-p271:32:32-p272:64:64-i64:64-i128:128-f80:128-n8:16:32:64-S128"
target triple = "x86_64-pc-linux-gnu"

%"class.std::optional" = type { %"struct.std::_Optional_base" }
%"struct.std::_Optional_base" = type { %"struct.std::_Optional_payload" }
%"struct.std::_Optional_payload" = type { %"struct.std::_Optional_payload_base.base", [3 x i8] }
%"struct.std::_Optional_payload_base.base" = type <{ %"union.std::_Optional_payload_base<nix::ExperimentalFeature>::_Storage", i8 }>
%"union.std::_Optional_payload_base<nix::ExperimentalFeature>::_Storage" = type { i32 }
%"class.std::__cxx11::basic_string" = type { %"struct.std::__cxx11::basic_string<char>::_Alloc_hider", i64, %union.anon }
%"struct.std::__cxx11::basic_string<char>::_Alloc_hider" = type { ptr }
%union.anon = type { i64, [8 x i8] }
%"class.std::allocator" = type { i8 }
%"struct.nix::Value" = type { i32, %union.anon.0 }
%union.anon.0 = type { %"struct.nix::Value::StringWithContext" }
%"struct.nix::Value::StringWithContext" = type { ptr, ptr }
%"class.std::basic_string_view" = type { i64, ptr }
%"struct.nix::PrintOptions" = type { i8, i8, i8, i8, i64, i64, i64, i64, i64 }
%"struct.nix::Value::FunctionApplicationThunk" = type { ptr, ptr }
%"struct.nix::PrimOp" = type { %"class.std::__cxx11::basic_string", %"class.std::vector.128", i64, ptr, ptr, %"class.std::optional" }
%"class.std::vector.128" = type { %"struct.std::_Vector_base.129" }
%"struct.std::_Vector_base.129" = type { %"struct.std::_Vector_base<std::__cxx11::basic_string<char>, std::allocator<std::__cxx11::basic_string<char>>>::_Vector_impl" }
%"struct.std::_Vector_base<std::__cxx11::basic_string<char>, std::allocator<std::__cxx11::basic_string<char>>>::_Vector_impl" = type { %"struct.std::_Vector_base<std::__cxx11::basic_string<char>, std::allocator<std::__cxx11::basic_string<char>>>::_Vector_impl_data" }
%"struct.std::_Vector_base<std::__cxx11::basic_string<char>, std::allocator<std::__cxx11::basic_string<char>>>::_Vector_impl_data" = type { ptr, ptr, ptr }
%"struct.std::_Optional_payload_base" = type <{ %"union.std::_Optional_payload_base<nix::ExperimentalFeature>::_Storage", i8, [3 x i8] }>

@.str.40 = private unnamed_addr constant [6 x i8] c"puppy\00", align 1
@.str.140 = private unnamed_addr constant [46 x i8] c"\1B[34;1m\C2\ABpartially applied primop puppy\C2\BB\1B[0m\00", align 1

; Function Attrs: mustprogress nounwind uwtable
define linkonce_odr void @_ZNSt22_Optional_payload_baseIN3nix19ExperimentalFeatureEE8_StorageIS1_Lb1EEC2Ev(ptr noundef nonnull align 4 dereferenceable(4) %0) unnamed_addr #4 comdat align 2 {
  %2 = alloca ptr, align 8
  store ptr %0, ptr %2, align 8
  ret void
}

; Function Attrs: mustprogress nounwind uwtable
define linkonce_odr void @_ZNSt15__new_allocatorINSt7__cxx1112basic_stringIcSt11char_traitsIcESaIcEEEEC2Ev(ptr noundef nonnull align 1 dereferenceable(1) %0) unnamed_addr #4 comdat align 2 {
  %2 = alloca ptr, align 8
  store ptr %0, ptr %2, align 8
  ret void
}

; Function Attrs: mustprogress nounwind uwtable
define linkonce_odr void @_ZNSt22_Optional_payload_baseIN3nix19ExperimentalFeatureEEC2Ev(ptr noundef nonnull align 4 dereferenceable(5) %0) unnamed_addr #4 comdat align 2 {
  %2 = alloca ptr, align 8
  store ptr %0, ptr %2, align 8
  %3 = load ptr, ptr %2, align 8
  %4 = getelementptr inbounds %"struct.std::_Optional_payload_base", ptr %3, i32 0, i32 0
  call void @_ZNSt22_Optional_payload_baseIN3nix19ExperimentalFeatureEE8_StorageIS1_Lb1EEC2Ev(ptr noundef nonnull align 4 dereferenceable(4) %4) #3
  %5 = getelementptr inbounds %"struct.std::_Optional_payload_base", ptr %3, i32 0, i32 1
  store i8 0, ptr %5, align 4
  ret void
}

; Function Attrs: mustprogress nounwind uwtable
define linkonce_odr void @_ZNSt12_Vector_baseINSt7__cxx1112basic_stringIcSt11char_traitsIcESaIcEEESaIS5_EE17_Vector_impl_dataC2Ev(ptr noundef nonnull align 8 dereferenceable(24) %0) unnamed_addr #4 comdat align 2 {
  %2 = alloca ptr, align 8
  store ptr %0, ptr %2, align 8
  %3 = load ptr, ptr %2, align 8
  %4 = getelementptr inbounds %"struct.std::_Vector_base<std::__cxx11::basic_string<char>, std::allocator<std::__cxx11::basic_string<char>>>::_Vector_impl_data", ptr %3, i32 0, i32 0
  store ptr null, ptr %4, align 8
  %5 = getelementptr inbounds %"struct.std::_Vector_base<std::__cxx11::basic_string<char>, std::allocator<std::__cxx11::basic_string<char>>>::_Vector_impl_data", ptr %3, i32 0, i32 1
  store ptr null, ptr %5, align 8
  %6 = getelementptr inbounds %"struct.std::_Vector_base<std::__cxx11::basic_string<char>, std::allocator<std::__cxx11::basic_string<char>>>::_Vector_impl_data", ptr %3, i32 0, i32 2
  store ptr null, ptr %6, align 8
  ret void
}

; Function Attrs: mustprogress nounwind uwtable
define linkonce_odr void @_ZNSaINSt7__cxx1112basic_stringIcSt11char_traitsIcESaIcEEEEC2Ev(ptr noundef nonnull align 1 dereferenceable(1) %0) unnamed_addr #4 comdat align 2 {
  %2 = alloca ptr, align 8
  store ptr %0, ptr %2, align 8
  %3 = load ptr, ptr %2, align 8
  call void @_ZNSt15__new_allocatorINSt7__cxx1112basic_stringIcSt11char_traitsIcESaIcEEEEC2Ev(ptr noundef nonnull align 1 dereferenceable(1) %3) #3
  ret void
}

; Function Attrs: mustprogress nounwind uwtable
define linkonce_odr void @_ZNSt17_Optional_payloadIN3nix19ExperimentalFeatureELb1ELb1ELb1EEC2Ev(ptr noundef nonnull align 4 dereferenceable(5) %0) unnamed_addr #4 comdat align 2 {
  %2 = alloca ptr, align 8
  store ptr %0, ptr %2, align 8
  %3 = load ptr, ptr %2, align 8
  call void @_ZNSt22_Optional_payload_baseIN3nix19ExperimentalFeatureEEC2Ev(ptr noundef nonnull align 4 dereferenceable(5) %3) #3
  ret void
}

; Function Attrs: mustprogress nounwind uwtable
define linkonce_odr void @_ZNSt12_Vector_baseINSt7__cxx1112basic_stringIcSt11char_traitsIcESaIcEEESaIS5_EE12_Vector_implC2Ev(ptr noundef nonnull align 8 dereferenceable(24) %0) unnamed_addr #4 comdat align 2 {
  %2 = alloca ptr, align 8
  store ptr %0, ptr %2, align 8
  %3 = load ptr, ptr %2, align 8
  call void @_ZNSaINSt7__cxx1112basic_stringIcSt11char_traitsIcESaIcEEEEC2Ev(ptr noundef nonnull align 1 dereferenceable(1) %3) #3
  call void @_ZNSt12_Vector_baseINSt7__cxx1112basic_stringIcSt11char_traitsIcESaIcEEESaIS5_EE17_Vector_impl_dataC2Ev(ptr noundef nonnull align 8 dereferenceable(24) %3) #3
  ret void
}

; Function Attrs: mustprogress nounwind uwtable
define linkonce_odr noundef i64 @_ZNSt11char_traitsIcE6lengthEPKc(ptr noundef %0) #4 comdat align 2 {
  %2 = alloca ptr, align 8
  store ptr %0, ptr %2, align 8
  %3 = load ptr, ptr %2, align 8
  %4 = call i64 @strlen(ptr noundef %3) #3
  ret i64 %4
}

; Function Attrs: mustprogress nounwind uwtable
define linkonce_odr void @_ZNSt14_Optional_baseIN3nix19ExperimentalFeatureELb1ELb1EEC2Ev(ptr noundef nonnull align 4 dereferenceable(8) %0) unnamed_addr #4 comdat align 2 {
  %2 = alloca ptr, align 8
  store ptr %0, ptr %2, align 8
  %3 = load ptr, ptr %2, align 8
  %4 = getelementptr inbounds %"struct.std::_Optional_base", ptr %3, i32 0, i32 0
  call void @_ZNSt17_Optional_payloadIN3nix19ExperimentalFeatureELb1ELb1ELb1EEC2Ev(ptr noundef nonnull align 4 dereferenceable(5) %4) #3
  ret void
}

; Function Attrs: mustprogress nounwind uwtable
define linkonce_odr void @_ZNSt12_Vector_baseINSt7__cxx1112basic_stringIcSt11char_traitsIcESaIcEEESaIS5_EEC2Ev(ptr noundef nonnull align 8 dereferenceable(24) %0) unnamed_addr #4 comdat align 2 {
  %2 = alloca ptr, align 8
  store ptr %0, ptr %2, align 8
  %3 = load ptr, ptr %2, align 8
  %4 = getelementptr inbounds %"struct.std::_Vector_base.129", ptr %3, i32 0, i32 0
  call void @_ZNSt12_Vector_baseINSt7__cxx1112basic_stringIcSt11char_traitsIcESaIcEEESaIS5_EE12_Vector_implC2Ev(ptr noundef nonnull align 8 dereferenceable(24) %4) #3
  ret void
}

; Function Attrs: mustprogress nounwind uwtable
define linkonce_odr noundef i64 @_ZNSt14numeric_limitsImE3maxEv() #4 comdat align 2 {
  ret i64 -1
}

; Function Attrs: mustprogress nounwind uwtable
define linkonce_odr void @_ZNSt17basic_string_viewIcSt11char_traitsIcEEC2EPKc(ptr noundef nonnull align 8 dereferenceable(16) %0, ptr noundef nonnull %1) unnamed_addr #4 comdat align 2 {
  %3 = alloca ptr, align 8
  %4 = alloca ptr, align 8
  store ptr %0, ptr %3, align 8
  store ptr %1, ptr %4, align 8
  %5 = load ptr, ptr %3, align 8
  %6 = getelementptr inbounds %"class.std::basic_string_view", ptr %5, i32 0, i32 0
  %7 = load ptr, ptr %4, align 8
  %8 = call noundef i64 @_ZNSt11char_traitsIcE6lengthEPKc(ptr noundef %7)
  store i64 %8, ptr %6, align 8
  %9 = getelementptr inbounds %"class.std::basic_string_view", ptr %5, i32 0, i32 1
  %10 = load ptr, ptr %4, align 8
  store ptr %10, ptr %9, align 8
  ret void
}

; Function Attrs: mustprogress nounwind uwtable
define linkonce_odr void @_ZN3nix5Value11mkPrimOpAppEPS0_S1_(ptr noundef nonnull align 8 dereferenceable(24) %0, ptr noundef %1, ptr noundef %2) #4 comdat align 2 {
  %4 = alloca ptr, align 8
  %5 = alloca ptr, align 8
  %6 = alloca ptr, align 8
  store ptr %0, ptr %4, align 8
  store ptr %1, ptr %5, align 8
  store ptr %2, ptr %6, align 8
  %7 = load ptr, ptr %4, align 8
  %8 = getelementptr inbounds %"struct.nix::Value", ptr %7, i32 0, i32 0
  store i32 14, ptr %8, align 8
  %9 = load ptr, ptr %5, align 8
  %10 = getelementptr inbounds %"struct.nix::Value", ptr %7, i32 0, i32 1
  %11 = getelementptr inbounds %"struct.nix::Value::FunctionApplicationThunk", ptr %10, i32 0, i32 0
  store ptr %9, ptr %11, align 8
  %12 = load ptr, ptr %6, align 8
  %13 = getelementptr inbounds %"struct.nix::Value", ptr %7, i32 0, i32 1
  %14 = getelementptr inbounds %"struct.nix::Value::FunctionApplicationThunk", ptr %13, i32 0, i32 1
  store ptr %12, ptr %14, align 8
  ret void
}

; Function Attrs: mustprogress nounwind uwtable
define linkonce_odr void @_ZNSt8optionalIN3nix19ExperimentalFeatureEEC2Ev(ptr noundef nonnull align 4 dereferenceable(8) %0) unnamed_addr #4 comdat align 2 {
  %2 = alloca ptr, align 8
  store ptr %0, ptr %2, align 8
  %3 = load ptr, ptr %2, align 8
  call void @_ZNSt14_Optional_baseIN3nix19ExperimentalFeatureELb1ELb1EEC2Ev(ptr noundef nonnull align 4 dereferenceable(8) %3) #3
  ret void
}

; Function Attrs: mustprogress nounwind uwtable
define linkonce_odr void @_ZNSt6vectorINSt7__cxx1112basic_stringIcSt11char_traitsIcESaIcEEESaIS5_EEC2Ev(ptr noundef nonnull align 8 dereferenceable(24) %0) unnamed_addr #4 comdat align 2 {
  %2 = alloca ptr, align 8
  store ptr %0, ptr %2, align 8
  %3 = load ptr, ptr %2, align 8
  call void @_ZNSt12_Vector_baseINSt7__cxx1112basic_stringIcSt11char_traitsIcESaIcEEESaIS5_EEC2Ev(ptr noundef nonnull align 8 dereferenceable(24) %3) #3
  ret void
}

; Function Attrs: mustprogress uwtable
define void @_ZN3nix43ValuePrintingTests_ansiColorsPrimOpApp_Test8TestBodyEv(ptr noundef nonnull align 8 dereferenceable(1272) %0) unnamed_addr #5 align 2 personality ptr @__gxx_personality_v0 {
  %2 = alloca ptr, align 8
  %3 = alloca %"struct.nix::PrimOp", align 8
  %4 = alloca %"class.std::allocator", align 1
  %5 = alloca ptr, align 8
  %6 = alloca i32, align 4
  %7 = alloca %"struct.nix::Value", align 8
  %8 = alloca %"struct.nix::Value", align 8
  %9 = alloca %"struct.nix::Value", align 8
  %10 = alloca %"class.std::basic_string_view", align 8
  %11 = alloca %"struct.nix::PrintOptions", align 8
  store ptr %0, ptr %2, align 8
  %12 = load ptr, ptr %2, align 8
  %13 = getelementptr inbounds %"struct.nix::PrimOp", ptr %3, i32 0, i32 0
  call void @_ZNSaIcEC1Ev(ptr noundef nonnull align 1 dereferenceable(1) %4) #3
  invoke void @_ZNSt7__cxx1112basic_stringIcSt11char_traitsIcESaIcEEC2IS3_EEPKcRKS3_(ptr noundef nonnull align 8 dereferenceable(32) %13, ptr noundef @.str.40, ptr noundef nonnull align 1 dereferenceable(1) %4)
          to label %14 unwind label %40

14:                                               ; preds = %1
  %15 = getelementptr inbounds %"struct.nix::PrimOp", ptr %3, i32 0, i32 1
  call void @llvm.memset.p0.i64(ptr align 8 %15, i8 0, i64 24, i1 false)
  call void @_ZNSt6vectorINSt7__cxx1112basic_stringIcSt11char_traitsIcESaIcEEESaIS5_EEC2Ev(ptr noundef nonnull align 8 dereferenceable(24) %15) #3
  %16 = getelementptr inbounds %"struct.nix::PrimOp", ptr %3, i32 0, i32 2
  store i64 0, ptr %16, align 8
  %17 = getelementptr inbounds %"struct.nix::PrimOp", ptr %3, i32 0, i32 3
  store ptr null, ptr %17, align 8
  %18 = getelementptr inbounds %"struct.nix::PrimOp", ptr %3, i32 0, i32 4
  store ptr null, ptr %18, align 8
  %19 = getelementptr inbounds %"struct.nix::PrimOp", ptr %3, i32 0, i32 5
  call void @_ZNSt8optionalIN3nix19ExperimentalFeatureEEC2Ev(ptr noundef nonnull align 4 dereferenceable(8) %19) #3
  call void @_ZNSaIcED1Ev(ptr noundef nonnull align 1 dereferenceable(1) %4) #3
  invoke void @_ZN3nix5Value8mkPrimOpEPNS_6PrimOpE(ptr noundef nonnull align 8 dereferenceable(24) %7, ptr noundef %3)
          to label %20 unwind label %44

20:                                               ; preds = %14
  invoke void @_ZN3nix5Value11mkPrimOpAppEPS0_S1_(ptr noundef nonnull align 8 dereferenceable(24) %8, ptr noundef %7, ptr noundef null)
          to label %21 unwind label %44

21:                                               ; preds = %20
  call void @llvm.memcpy.p0.p0.i64(ptr align 8 %9, ptr align 8 %8, i64 24, i1 false)
  call void @_ZNSt17basic_string_viewIcSt11char_traitsIcEEC2EPKc(ptr noundef nonnull align 8 dereferenceable(16) %10, ptr noundef @.str.140) #3
  %22 = getelementptr inbounds %"struct.nix::PrintOptions", ptr %11, i32 0, i32 0
  store i8 1, ptr %22, align 8
  %23 = getelementptr inbounds %"struct.nix::PrintOptions", ptr %11, i32 0, i32 1
  store i8 0, ptr %23, align 1
  %24 = getelementptr inbounds %"struct.nix::PrintOptions", ptr %11, i32 0, i32 2
  store i8 0, ptr %24, align 2
  %25 = getelementptr inbounds %"struct.nix::PrintOptions", ptr %11, i32 0, i32 3
  store i8 1, ptr %25, align 1
  %26 = getelementptr inbounds %"struct.nix::PrintOptions", ptr %11, i32 0, i32 4
  %27 = call noundef i64 @_ZNSt14numeric_limitsImE3maxEv() #3
  store i64 %27, ptr %26, align 8
  %28 = getelementptr inbounds %"struct.nix::PrintOptions", ptr %11, i32 0, i32 5
  %29 = call noundef i64 @_ZNSt14numeric_limitsImE3maxEv() #3
  store i64 %29, ptr %28, align 8
  %30 = getelementptr inbounds %"struct.nix::PrintOptions", ptr %11, i32 0, i32 6
  %31 = call noundef i64 @_ZNSt14numeric_limitsImE3maxEv() #3
  store i64 %31, ptr %30, align 8
  %32 = getelementptr inbounds %"struct.nix::PrintOptions", ptr %11, i32 0, i32 7
  %33 = call noundef i64 @_ZNSt14numeric_limitsImE3maxEv() #3
  store i64 %33, ptr %32, align 8
  %34 = getelementptr inbounds %"struct.nix::PrintOptions", ptr %11, i32 0, i32 8
  store i64 0, ptr %34, align 8
  %35 = getelementptr inbounds { i64, ptr }, ptr %10, i32 0, i32 0
  %36 = load i64, ptr %35, align 8
  %37 = getelementptr inbounds { i64, ptr }, ptr %10, i32 0, i32 1
  %38 = load ptr, ptr %37, align 8
  invoke void @_ZN3nix18ValuePrintingTests4testIJNS_12PrintOptionsEEEEvNS_5ValueESt17basic_string_viewIcSt11char_traitsIcEEDpT_(ptr noundef nonnull align 8 dereferenceable(1272) %12, ptr noundef byval(%"struct.nix::Value") align 8 %9, i64 %36, ptr %38, ptr noundef byval(%"struct.nix::PrintOptions") align 8 %11)
          to label %39 unwind label %44

39:                                               ; preds = %21
  call void @_ZN3nix6PrimOpD2Ev(ptr noundef nonnull align 8 dereferenceable(88) %3) #3
  ret void

40:                                               ; preds = %1
  %41 = landingpad { ptr, i32 }
          cleanup
  %42 = extractvalue { ptr, i32 } %41, 0
  store ptr %42, ptr %5, align 8
  %43 = extractvalue { ptr, i32 } %41, 1
  store i32 %43, ptr %6, align 4
  call void @_ZNSaIcED1Ev(ptr noundef nonnull align 1 dereferenceable(1) %4) #3
  br label %48

44:                                               ; preds = %21, %20, %14
  %45 = landingpad { ptr, i32 }
          cleanup
  %46 = extractvalue { ptr, i32 } %45, 0
  store ptr %46, ptr %5, align 8
  %47 = extractvalue { ptr, i32 } %45, 1
  store i32 %47, ptr %6, align 4
  call void @_ZN3nix6PrimOpD2Ev(ptr noundef nonnull align 8 dereferenceable(88) %3) #3
  br label %48

48:                                               ; preds = %44, %40
  %49 = load ptr, ptr %5, align 8
  %50 = load i32, ptr %6, align 4
  %51 = insertvalue { ptr, i32 } poison, ptr %49, 0
  %52 = insertvalue { ptr, i32 } %51, i32 %50, 1
  resume { ptr, i32 } %52
}